(dp1
S'files'
p2
(dp3
S'manage'
p4
(dp5
S'index'
p6
(dp7
S'html_filename'
p8
S'manage.html'
p9
sS'name'
p10
g4
sS'nums'
p11
ccopy_reg
_reconstructor
p12
(ccoverage.results
Numbers
p13
c__builtin__
object
p14
NtRp15
(dp16
S'n_files'
p17
I1
sS'n_branches'
p18
I0
sS'n_statements'
p19
I6
sS'n_excluded'
p20
I0
sS'n_partial_branches'
p21
I0
sS'n_missing'
p22
I0
sS'n_missing_branches'
p23
I0
sbssS'hash'
p24
S"%+\xd8\xa5\x1dUS7'6-t\x8b\xf2\xbe\x14"
p25
ssS'rango_templatetags___init__'
p26
(dp27
g6
(dp28
g8
S'rango_templatetags___init__.html'
p29
sg10
S'rango\\templatetags\\__init__'
p30
sg11
g12
(g13
g14
NtRp31
(dp32
g17
I1
sg18
I0
sg19
I0
sg20
I0
sg21
I0
sg22
I0
sg23
I0
sbssg24
S'\xca\xf5\x9f\x7f\x88\xdfa\x831|T\x1d\xbc}\xa5v'
p33
ssS'rango_migrations___init__'
p34
(dp35
g6
(dp36
g8
S'rango_migrations___init__.html'
p37
sg10
S'rango\\migrations\\__init__'
p38
sg11
g12
(g13
g14
NtRp39
(dp40
g17
I1
sg18
I0
sg19
I0
sg20
I0
sg21
I0
sg22
I0
sg23
I0
sbssg24
S'\xca\xf5\x9f\x7f\x88\xdfa\x831|T\x1d\xbc}\xa5v'
p41
ssS'rango_migrations_0002_auto_20150709_2136'
p42
(dp43
g6
(dp44
g8
S'rango_migrations_0002_auto_20150709_2136.html'
p45
sg10
S'rango\\migrations\\0002_auto_20150709_2136'
p46
sg11
g12
(g13
g14
NtRp47
(dp48
g17
I1
sg18
I0
sg19
I5
sg20
I0
sg21
I0
sg22
I0
sg23
I0
sbssg24
S'q{[\x11\x84`a\xfft7S\xa4\x8e\x175\x89'
p49
ssS'rango_migrations_0001_initial'
p50
(dp51
g6
(dp52
g8
S'rango_migrations_0001_initial.html'
p53
sg10
S'rango\\migrations\\0001_initial'
p54
sg11
g12
(g13
g14
NtRp55
(dp56
g17
I1
sg18
I0
sg19
I5
sg20
I0
sg21
I0
sg22
I0
sg23
I0
sbssg24
S"R\xdd&`3'\x1c3s\xe5\xe5/\x86[#\xbd"
p57
ssS'rango___init__'
p58
(dp59
g6
(dp60
g8
S'rango___init__.html'
p61
sg10
S'rango\\__init__'
p62
sg11
g12
(g13
g14
NtRp63
(dp64
g17
I1
sg18
I0
sg19
I0
sg20
I0
sg21
I0
sg22
I0
sg23
I0
sbssg24
S'\xca\xf5\x9f\x7f\x88\xdfa\x831|T\x1d\xbc}\xa5v'
p65
ssS'tango_with_django_project_wsgi'
p66
(dp67
g6
(dp68
g8
S'tango_with_django_project_wsgi.html'
p69
sg10
S'tango_with_django_project\\wsgi'
p70
sg11
g12
(g13
g14
NtRp71
(dp72
g17
I1
sg18
I0
sg19
I4
sg20
I0
sg21
I0
sg22
I4
sg23
I0
sbssg24
S"\xf9\xf7\x1bwY2\xa0\xd1\xaaa\xee@\xbf'\x88\x88"
p73
ssS'tango_with_django_project___init__'
p74
(dp75
g6
(dp76
g8
S'tango_with_django_project___init__.html'
p77
sg10
S'tango_with_django_project\\__init__'
p78
sg11
g12
(g13
g14
NtRp79
(dp80
g17
I1
sg18
I0
sg19
I0
sg20
I0
sg21
I0
sg22
I0
sg23
I0
sbssg24
S'\xca\xf5\x9f\x7f\x88\xdfa\x831|T\x1d\xbc}\xa5v'
p81
ssS'populate_rango'
p82
(dp83
g6
(dp84
g8
S'populate_rango.html'
p85
sg10
g82
sg11
g12
(g13
g14
NtRp86
(dp87
g17
I1
sg18
I0
sg19
I49
sg20
I0
sg21
I0
sg22
I49
sg23
I0
sbssg24
S'}\x92{\xec\xbaf\xedY\xd0\x97\r\xb9\xaa\xc7\x04d'
p88
ssS'rango_bing_search'
p89
(dp90
g6
(dp91
g8
S'rango_bing_search.html'
p92
sg10
S'rango\\bing_search'
p93
sg11
g12
(g13
g14
NtRp94
(dp95
g17
I1
sg18
I0
sg19
I26
sg20
I0
sg21
I0
sg22
I22
sg23
I0
sbssg24
S'\xc7\x19\x83\n\xaf\xa58E\xe7\x85C\xdb\x9dKq\x13'
p96
ssS'rango_templatetags_rango_extras'
p97
(dp98
g6
(dp99
g8
S'rango_templatetags_rango_extras.html'
p100
sg10
S'rango\\templatetags\\rango_extras'
p101
sg11
g12
(g13
g14
NtRp102
(dp103
g17
I1
sg18
I0
sg19
I6
sg20
I0
sg21
I0
sg22
I6
sg23
I0
sbssg24
S'K\xd9\xee\xdelpL\xe8\x92\xf8\xf4\x9c\xf3\x91w\x9e'
p104
ssS'tango_with_django_project_urls'
p105
(dp106
g6
(dp107
g8
S'tango_with_django_project_urls.html'
p108
sg10
S'tango_with_django_project\\urls'
p109
sg11
g12
(g13
g14
NtRp110
(dp111
g17
I1
sg18
I0
sg19
I6
sg20
I0
sg21
I0
sg22
I1
sg23
I0
sbssg24
S'\x9a\x83\x93\xdc\xdb\xc3\xd0\xe6\x15\x93/\xd97G%\xeb'
p112
ssS'rango_urls'
p113
(dp114
g6
(dp115
g8
S'rango_urls.html'
p116
sg10
S'rango\\urls'
p117
sg11
g12
(g13
g14
NtRp118
(dp119
g17
I1
sg18
I0
sg19
I7
sg20
I0
sg21
I0
sg22
I0
sg23
I0
sbssg24
S' \xf0\xe7)s\xe2IW\xce\xea\xca\x9a\x1b|\xdc,'
p120
ssS'rango_forms'
p121
(dp122
g6
(dp123
g8
S'rango_forms.html'
p124
sg10
S'rango\\forms'
p125
sg11
g12
(g13
g14
NtRp126
(dp127
g17
I1
sg18
I0
sg19
I34
sg20
I0
sg21
I0
sg22
I6
sg23
I0
sbssg24
S'\t(3\xde\x16\xed\xb8m\xd7<$\x16\xccL\xd5/'
p128
ssS'rango_models'
p129
(dp130
g6
(dp131
g8
S'rango_models.html'
p132
sg10
S'rango\\models'
p133
sg11
g12
(g13
g14
NtRp134
(dp135
g17
I1
sg18
I0
sg19
I27
sg20
I0
sg21
I0
sg22
I3
sg23
I0
sbssg24
S';\xe2\x85\xb6)\xa2\xe4\xea\x90Gp\x0b3H\xa8\x0b'
p136
ssS'rango_migrations_0003_category_slug'
p137
(dp138
g6
(dp139
g8
S'rango_migrations_0003_category_slug.html'
p140
sg10
S'rango\\migrations\\0003_category_slug'
p141
sg11
g12
(g13
g14
NtRp142
(dp143
g17
I1
sg18
I0
sg19
I5
sg20
I0
sg21
I0
sg22
I0
sg23
I0
sbssg24
S'2\x88)g!Z\xca4\xd8\xe9\x9d\xf7\xdb\xd6\x06\xda'
p144
ssS'rango_tests'
p145
(dp146
g6
(dp147
g8
S'rango_tests.html'
p148
sg10
S'rango\\tests'
p149
sg11
g12
(g13
g14
NtRp150
(dp151
g17
I1
sg18
I0
sg19
I34
sg20
I0
sg21
I0
sg22
I0
sg23
I0
sbssg24
S'\x8c\tY\xdf\x98.\xa9) \xf3\xf4\xa0\xa2\xe1\xd5\xbf'
p152
ssS'rango_views'
p153
(dp154
g6
(dp155
g8
S'rango_views.html'
p156
sg10
S'rango\\views'
p157
sg11
g12
(g13
g14
NtRp158
(dp159
g17
I1
sg18
I0
sg19
I166
sg20
I0
sg21
I0
sg22
I127
sg23
I0
sbssg24
S'Y4\xa6pYi\x8a\xea\xd0\xdd\xeb\x82\x97\xfd\xdd\xad'
p160
ssS'tango_with_django_project_settings'
p161
(dp162
g6
(dp163
g8
S'tango_with_django_project_settings.html'
p164
sg10
S'tango_with_django_project\\settings'
p165
sg11
g12
(g13
g14
NtRp166
(dp167
g17
I1
sg18
I0
sg19
I29
sg20
I0
sg21
I0
sg22
I0
sg23
I0
sbssg24
S'\xac\xb8I9::\xf3\xab\xed\xd5\x00\xf99\x1edu'
p168
ssS'flask_web_tut'
p169
(dp170
g6
(dp171
g8
S'flask_web_tut.html'
p172
sg10
g169
sg11
g12
(g13
g14
NtRp173
(dp174
g17
I1
sg18
I0
sg19
I86
sg20
I0
sg21
I0
sg22
I86
sg23
I0
sbssg24
S'n\x0c\xbdW\r\x18iO\xd2\x8f\x874\x86\x91\x1c\xea'
p175
ssS'rango_migrations_0004_userprofile'
p176
(dp177
g6
(dp178
g8
S'rango_migrations_0004_userprofile.html'
p179
sg10
S'rango\\migrations\\0004_userprofile'
p180
sg11
g12
(g13
g14
NtRp181
(dp182
g17
I1
sg18
I0
sg19
I6
sg20
I0
sg21
I0
sg22
I0
sg23
I0
sbssg24
S'~,\x9c\xbd\x85\xceZF\xc0x\xcfK)\xe0\xa2>'
p183
ssS'rango_admin'
p184
(dp185
g6
(dp186
g8
S'rango_admin.html'
p187
sg10
S'rango\\admin'
p188
sg11
g12
(g13
g14
NtRp189
(dp190
g17
I1
sg18
I0
sg19
I9
sg20
I0
sg21
I0
sg22
I0
sg23
I0
sbssg24
S"\x16Y\xe6\xf7\x15\x99\xf8}\x80u'\x04\xc8\x05\xe4\x8e"
p191
sssS'version'
p192
S'3.7.1'
p193
sS'settings'
p194
S'\x98\xa8x\xfe"r\xb5K\x98\xb1N\\\x99\x9e\xf3\xe5'
p195
sS'format'
p196
I1
s.